; Function Attrs: mustprogress nounwind uwtable
define hidden noundef i32 @_ZN8JvmtiEnv16GetThreadCpuTimeEP8_jobjectPl(ptr nocapture noundef nonnull readnone align 8 dereferenceable(460) %0, ptr noundef %1, ptr noundef writeonly %2) local_unnamed_addr #0 align 2 {
  %4 = alloca %class.ThreadsListHandle, align 8
  %5 = alloca ptr, align 8
  %6 = alloca ptr, align 8
  %7 = tail call align 8 ptr @llvm.threadlocal.address.p0(ptr align 8 @_ZN6Thread12_thr_currentE)
  %8 = load ptr, ptr %7, align 8
  call void @_ZN17ThreadsListHandleC1EP6Thread(ptr noundef nonnull align 8 dereferenceable(56) %4, ptr noundef %8) #17
  store ptr null, ptr %5, align 8
  store ptr null, ptr %6, align 8
  %9 = getelementptr inbounds i8, ptr %4, i64 16
  %10 = load ptr, ptr %9, align 8
  %11 = call noundef i32 @_ZN12JvmtiEnvBase28get_threadOop_and_JavaThreadEP11ThreadsListP8_jobjectP10JavaThreadPS5_PP7oopDesc(ptr noundef %10, ptr noundef %1, ptr noundef %8, ptr noundef nonnull %5, ptr noundef nonnull %6) #17
  %12 = load ptr, ptr %6, align 8
  %.not = icmp eq ptr %12, null
  br i1 %.not, label %_ZNK7oopDesc4is_aEP5Klass.exit.thread12, label %13

13:                                               ; preds = %3
  %14 = load ptr, ptr getelementptr inbounds (i8, ptr @_ZN9vmClasses8_klassesE, i64 296), align 8
  %15 = load i8, ptr @UseCompressedClassPointers, align 1
  %16 = trunc i8 %15 to i1
  %17 = getelementptr inbounds i8, ptr %12, i64 8
  br i1 %16, label %18, label %28

18:                                               ; preds = %13
  %19 = load i32, ptr %17, align 8
  %20 = load ptr, ptr @_ZN23CompressedKlassPointers5_baseE, align 8
  %21 = load i32, ptr @_ZN23CompressedKlassPointers6_shiftE, align 4
  %22 = ptrtoint ptr %20 to i64
  %23 = zext i32 %19 to i64
  %24 = zext nneg i32 %21 to i64
  %25 = shl i64 %23, %24
  %26 = add i64 %25, %22
  %27 = inttoptr i64 %26 to ptr
  br label %_ZNK7oopDesc5klassEv.exit.i

28:                                               ; preds = %13
  %29 = load ptr, ptr %17, align 8
  br label %_ZNK7oopDesc5klassEv.exit.i

_ZNK7oopDesc5klassEv.exit.i:                      ; preds = %28, %18
  %.0.i.i = phi ptr [ %27, %18 ], [ %29, %28 ]
  %30 = getelementptr inbounds i8, ptr %14, i64 20
  %31 = load i32, ptr %30, align 4
  %32 = zext i32 %31 to i64
  %33 = getelementptr inbounds i8, ptr %.0.i.i, i64 %32
  %34 = load ptr, ptr %33, align 8
  %35 = icmp eq ptr %34, %14
  br i1 %35, label %_ZNK7oopDesc4is_aEP5Klass.exit.thread, label %36

36:                                               ; preds = %_ZNK7oopDesc5klassEv.exit.i
  %.not.i.i = icmp eq i32 %31, 32
  br i1 %.not.i.i, label %_ZNK7oopDesc4is_aEP5Klass.exit, label %_ZNK7oopDesc4is_aEP5Klass.exit.thread12

_ZNK7oopDesc4is_aEP5Klass.exit:                   ; preds = %36
  %37 = call noundef zeroext i1 @_ZNK5Klass23search_secondary_supersEPS_(ptr noundef nonnull align 8 dereferenceable(196) %.0.i.i, ptr noundef nonnull %14) #17
  br i1 %37, label %_ZNK7oopDesc4is_aEP5Klass.exit.thread, label %_ZNK7oopDesc4is_aEP5Klass.exit.thread12

_ZNK7oopDesc4is_aEP5Klass.exit.thread12:          ; preds = %36, %_ZNK7oopDesc4is_aEP5Klass.exit, %3
  %.not10 = icmp eq i32 %11, 0
  br i1 %.not10, label %38, label %_ZNK7oopDesc4is_aEP5Klass.exit.thread

38:                                               ; preds = %_ZNK7oopDesc4is_aEP5Klass.exit.thread12
  %39 = icmp eq ptr %2, null
  br i1 %39, label %_ZNK7oopDesc4is_aEP5Klass.exit.thread, label %40

40:                                               ; preds = %38
  %41 = load ptr, ptr %5, align 8
  %42 = call noundef i64 @_ZN2os15thread_cpu_timeEP6Thread(ptr noundef %41) #17
  store i64 %42, ptr %2, align 8
  br label %_ZNK7oopDesc4is_aEP5Klass.exit.thread

_ZNK7oopDesc4is_aEP5Klass.exit.thread:            ; preds = %_ZNK7oopDesc5klassEv.exit.i, %38, %_ZNK7oopDesc4is_aEP5Klass.exit.thread12, %_ZNK7oopDesc4is_aEP5Klass.exit, %40
  %.0 = phi i32 [ 0, %40 ], [ 73, %_ZNK7oopDesc4is_aEP5Klass.exit ], [ %11, %_ZNK7oopDesc4is_aEP5Klass.exit.thread12 ], [ 100, %38 ], [ 73, %_ZNK7oopDesc5klassEv.exit.i ]
  call void @_ZN17ThreadsListHandleD1Ev(ptr noundef nonnull align 8 dereferenceable(56) %4) #17
  ret i32 %.0
}